(lp0
(ipublic_model
Article
p1
(dp2
S'origin'
p3
V\u6781\u5ba2\u516c\u56ed-GeekPark
p4
sS'label_list'
p5
(lp6
sS'title'
p7
V\u4e09\u7ebf\u57ce\u5e02\u667a\u80fd\u7535\u89c6\u72b6\u51b5\u6f2b\u8c08\u2014\u2014\u4ee5\u5408\u80a5\u4e3a\u6837\u672c
p8
sS'summary'
p9
V2012 \u5e74 12 \u6708 4 \u65e5\uff0c\u300a\u7ecf\u6d4e\u5b66\u4eba\u300b\u5b98\u7f51\u4e0a\u53d1\u5e03\u4e86\u4e00\u7bc7\u540d\u4e3a\u300a\u90fd\u5e02\u7ecf\u6d4e\u4f53\u300b\u7684\u62a5\u544a\uff0c\u901a\u8fc7\u56fe\u8868\u5217\u51fa\u4e86\u4e16\u754c\u589e\u957f\u6700\u5feb/\u6162\u90fd\u5e02\u7ecf\u6d4e\u4f53\u3002\u4ece\u6700\u8fd15\u5e74\u6765\u770b\uff0c\u6309\u5b9e\u9645\u4eba\u5747GDP\u8ba1\u7b97\uff0c\u4e16\u754c\u4e0a\u589e\u957f\u6700\u5feb\u7684\u90fd\u5e02\u7ecf\u6d4e\u4f53\u662f\u4e2d\u56fd\u5b89\u5fbd\u7684\u7701\u4f1a\u57ce\u5e02\u5408\u80a5\u3002\u6309\u7167\u5408\u80a5\u7684\u57ce\u5e02\u53d1\u5c55\u6218\u7565\u89c4\u5212\uff0c\u5230 2015 \u5e74\uff0c\u8981\u8fbe\u5230\u5e02\u533a\u4eba\u53e3 400 \u4e07\uff0c\u603b\u4eba\u53e3\u8d85\u8fc7 600 \u4e07\uff0c\u8fdc\u666f\u5e02\u57df\u4eba\u53e3\u7a81\u7834 1000 \u4e07\uff0c\u5e02\u533a\u4eba\u53e3\u7a81\u7834 800 \u4e07\u7684\u76ee\u6807\uff0c\u6210\u4e3a\u4e2d\u90e8\u7684\u533a\u57df\u6027\u7279\u5927\u57ce\u5e02\u3002\u000a\u000a\u5408\u80a5\u5df2\u5efa\u6709 2 \u5ea7\u4e07\u8fbe\u5e7f\u573a\uff08\u672a\u6765\u4f1a\u8fbe\u5230 5 \u5ea7\uff09\uff0c\u56fd\u9645\u5962\u4f88\u54c1 LV \u4e8e\u53bb\u5e74\u8fdb\u9a7b\u5408\u80a5\uff0c\u6d77\u5e95\u635e\u4e5f\u4e8e\u524d\u4e0d\u4e45\u5f00\u4e1a\u3002\u6839\u636e\u667a\u8054\u62db\u8058\u53d1\u5e03\u7684\u300a2013\u6625\u5b63\u804c\u573a\u624d\u60c5\u62a5\u544a\u300b\uff0c\u5408\u80a5\u5728\u53c2\u9009\u7684 24 \u4e2a\u57ce\u5e02\u85aa\u916c\u6392\u540d\u4e2d\u540d\u5217\u7b2c 17 \u540d\uff0c\u5e73\u5747\u6708\u85aa 3151 \u5143\u3002\u5408\u80a5\u7684\u57ce\u5e02\u8d2d\u4e70\u529b\u76f4\u903c\u4e8c\u7ebf\u57ce\u5e02\u30025 \u6708\u521d\uff0c\u4e2d\u56fd\u7535\u4fe1\u7684 4G \u4f53\u9a8c\u6d3b\u52a8\u9009\u62e9\u5728\u5408\u80a5\u9996\u6b21\u5411\u5168\u56fd\u516c\u5f00\u4eae\u76f8\u3002\u82f9\u679c\u4ea7\u54c1\u7684\u4e13\u5356\u5e97\u5728\u5e02\u533a\u968f\u5904\u53ef\u89c1\u3002\u90a3\u4e48\u5728\u8fd9\u6837\u4e00\u4e2a\u57ce\u5e02\u91cc\uff0c\u667a\u80fd\u7535\u89c6\u662f\u5426\u80fd\u53d6\u5f97\u8db3\u591f\u7684\u5e02\u573a\u7a7a\u95f4\u5462\uff1f\u000a\u5356\u573a\u521d\u7aa5\u000a\u6211\u8d70\u8bbf\u4e86\u5408\u80a5\u56db\u5bb6\u4e3b\u8981\u7535\u5668\u5546\u57ce\u7684\u95e8\u5e97\uff0c\u5206\u522b\u662f\uff1a\u82cf\u5b81\u3001\u56fd\u7f8e\u3001\u767e\u5927\u7535\u5668\u548c\u4e94\u661f\u7535\u5668\uff0c\u5206\u522b\u4f4d\u4e8e\u6bd4\u8f83\u7e41\u534e\u7684\u4e09\u91cc\u5eb5\u548c\u4e09\u5b5d\u53e3\u3002\u56db\u5bb6\u7535\u5668\u57ce\u91cc\u7684\u7535\u89c6\u5c55\u533a\u57fa\u672c\u76f8\u4f3c\uff0c\u8fdb\u9a7b\u7684\u7535\u89c6\u54c1\u724c\u76f8\u5dee\u4e0d\u5927\u3002\u957f\u8679\u3001\u6d77\u5c14\u3001\u521b\u7ef4\u3001TCL\u3001\u5eb7\u4f73\u3001\u6d77\u4fe1\u8fd9\u516d\u4e2a\u8001\u724c\u56fd\u4ea7\u7535\u89c6\u5382\u5546\u5747\u5728\u56db\u5bb6\u95e8\u5e97\u4e2d\u8bbe\u6709\u5c55\u533a\uff0c\u800c\u7d22\u5c3c\u3001\u590f\u666e\u3001\u4e09\u661f\u3001LG\u3001\u98de\u5229\u6d66\u7b49\u56fd\u5916\u5382\u5546\u5728\u82cf\u5b81\u548c\u767e\u5927\u4e2d\u8f83\u4e3a\u9f50\u5907\u3002\u8054\u60f3\u7684\u5c55\u533a\u5219\u6bd4\u8f83\u4f4e\u8c03\u5730\u85cf\u5728\u5546\u573a\u4fa7\u8fb9\uff0c\u6211\u5dee\u70b9\u90fd\u6ca1\u53d1\u73b0\u3002\u000a\u56fd\u5185\u548c\u56fd\u5916\u7535\u89c6\u5382\u5546\u5728\u5bf9\u667a\u80fd\u7535\u89c6\u547d\u540d\u4e0a\u6709\u6bd4\u8f83\u660e\u663e\u7684\u533a\u522b\u3002\u56fd\u5185\u4f20\u7edf\u7535\u89c6\u54c1\u724c\u7eb7\u7eb7\u51a0\u4ee5&ldquo;\u4e91&rdquo;\u5b57\u5934\u79f0\u8c13\uff0c\u5982\u6d77\u5c14\u4e91 TV\u3001\u521b\u7ef4\u9177\u5f00\u4e91\u7535\u89c6\u3001TCL \u667a\u80fd\u4e91\u7535\u89c6\u3001\u5eb7\u4f73\u540c\u6b65\u4e91\u7535\u89c6\u3002\u800c\u56fd\u5916\u54c1\u724c\u5e76\u6ca1\u6709\u5728\u4e91\u3001\u667a\u80fd\u4e4b\u7c7b\u7684\u6982\u5ff5\u4e0a\u6709\u592a\u591a\u7740\u7b14\u3002\u56fd\u4ea7\u667a\u80fd\u7535\u89c6\u7cfb\u7edf\u5168\u90e8\u57fa\u4e8e Android 4.0 \u5b9a\u5236\u800c\u6210\uff0c\u64cd\u4f5c\u754c\u9762\u7b49\u4e8e\u662f\u4e00\u4e2a\u653e\u5927\u7248\u7684 Android \u624b\u673a\uff0c\u4f46\u662f UI \u76f8\u5f53\u7c97\u7cd9\uff0c\u901a\u8fc7\u9065\u63a7\u5668\u7684\u64cd\u4f5c\u6bd4\u4f20\u7edf\u7535\u89c6\u66f4\u4e3a\u590d\u6742\u3002\u56fd\u5916\u5382\u5546\u5185\u7f6e\u7684\u5927\u90e8\u5206\u4e3a\u81ea\u4e3b\u7814\u53d1\u7684\u7cfb\u7edf\uff0c\u529f\u80fd\u548c\u64cd\u4f5c\u76f8\u5bf9\u7b80\u5355\uff0c\u4f46\u6bd4\u524d\u4e00\u4ee3\u7684\u6570\u5b57\u7535\u89c6\u6709\u66f4\u52a0\u7f8e\u89c2\u7684\u64cd\u4f5c\u754c\u9762\uff0c\u5e76\u4e14\u80fd\u591f\u901a\u8fc7\u6709\u7ebf\u548c\u65e0\u7ebf\u65b9\u5f0f\u6d4f\u89c8\u7f51\u9875\u3002\u000a\u6d88\u8d39\u8005\u4e70\u8d26\u5417\uff1f\u000a\u6211\u8d70\u8bbf\u82cf\u5b81\u7535\u5668\u7684\u8fc7\u7a0b\u4e2d\u9047\u5230\u4e00\u5bf9\u5e74\u9f84\u7ea6\u56db\u4e94\u5341\u5c81\u7684\u592b\u5987\u6765\u9009\u8d2d\u7535\u89c6\u3002\u4ed6\u4eec\u8bf4\u81ea\u5df1\u5bb6\u7684\u7535\u89c6\u770b\u4e86\u5341\u51e0\u5e74\u5feb\u574f\u4e86\uff0c\u73b0\u5728\u6253\u7b97\u6362\u4e2a\u65b0\u7684\uff0c\u901b\u4e86\u597d\u51e0\u5bb6\u7535\u5668\u5546\u57ce\u53d1\u73b0\u5356\u7684\u90fd\u662f 40 \u5bf8\u4e43\u81f3 60 \u5bf8\u7684\u667a\u80fd\u7535\u89c6\uff0c\u52a8\u8f84 10000 \u5143\u4ee5\u4e0a\u7684\u4ef7\u683c\u8ba9\u4ed6\u4eec\u65e0\u6cd5\u63a5\u53d7\u3002\u800c\u4e14\u4ed6\u4eec\u76ee\u524d\u7528\u7684\u4ecd\u662f\u8bfa\u57fa\u4e9a\u7684\u529f\u80fd\u673a\uff0c\u5bf9\u667a\u80fd\u7535\u89c6\u773c\u82b1\u7f2d\u4e71\u7684\u64cd\u4f5c\u754c\u9762\u611f\u5230\u627e\u4e0d\u7740\u5317\u3002\u5c24\u5176\u662f\u5e97\u5458\u6f14\u793a\u5982\u4f55\u8fde\u63a5\u65e0\u7ebf\u7f51\u65f6\uff0c\u8fd9\u5bf9\u592b\u5987\u8868\u793a\u5b8c\u5168\u8bb0\u4e0d\u4f4f\u8fd9\u4e9b\u6b65\u9aa4\u3002\u5e97\u5458\u5728\u5411\u4ed6\u4eec\u4ecb\u7ecd\u667a\u80fd\u7535\u89c6\u7684\u7cfb\u7edf\u65f6\u4e5f\u5b58\u5728\u4e0d\u5c11\u5e38\u8bc6\u6027\u9519\u8bef\uff0c\u6bd4\u5982&ldquo;\u7535\u89c6\u9884\u88c5\u7684\u5b89\u5353 4.0.4 \u662f\u6700\u65b0\u7684\u7cfb\u7edf\uff0c\u6bd4\u624b\u673a\u4e0a\u7684 4.0 \u66f4\u5148\u8fdb&rdquo;\u4e4b\u7c7b\u3002\u8fd9\u65e2\u4e0d\u80fd\u52a0\u6df1\u4e2d\u8001\u5e74\u5ba2\u6237\u5bf9\u667a\u80fd\u7535\u89c6\u7684\u8ba4\u77e5\uff0c\u4e5f\u4f1a\u8ba9\u61c2\u884c\u7684\u5e74\u8f7b\u4eba\u89c9\u5f97\u4e0d\u4e13\u4e1a\u3002\u8fd9\u5bf9\u592b\u5987\u5bf9\u6211\u8bf4\uff0c\u4ed6\u4eec\u53ea\u662f\u60f3\u4e70\u4e00\u53f0\u4e09\u56db\u5343\u5757\u94b1\u7684\u5c4f\u5e55\u5927\u4e00\u4e9b\u7684\u7535\u89c6\u800c\u5df2\uff0c\u5bf9\u4e8e\u4e0a\u7f51\u529f\u80fd\u5174\u8da3\u4e0d\u5927\uff0c\u56e0\u4e3a\u5bb6\u91cc\u5df2\u7ecf\u6709\u4e00\u90e8\u53f0\u5f0f\u673a\u3002\u6e38\u620f\u529f\u80fd\u5c31\u66f4\u662f\u9e21\u808b\u4e86\uff0c\u4ed6\u4eec\u538b\u6839\u5c31\u4e0d\u73a9\u6e38\u620f\u3002\u000a\u000a\u6211\u7684\u4e00\u4e2a\u540c\u9f84\u5973\u6027\u670b\u53cb\u73b0\u5728\u5408\u80a5\u5b9a\u5c45\uff0c\u6b63\u5728\u548c\u5979\u7684\u7537\u670b\u53cb\u5c0f\u6e38\u7f6e\u529e\u65b0\u623f\u7684\u5bb6\u7535\u3002\u5c0f\u6e38\u5728\u4e00\u5bb6\u5de5\u7a0b\u516c\u53f8\u4ece\u4e8b\u8d28\u76d1\u5de5\u4f5c\uff0c\u6709\u4e00\u90e8 iPhone \u624b\u673a\u548c \u4e09\u661f\u7684 Galaxy Tab \u5e73\u677f\u7535\u8111\u3002\u6211\u95ee\u5c0f\u6e38\u6253\u7b97\u4e70\u4ec0\u4e48\u6837\u7684\u7535\u89c6\uff0c\u4ed6\u8bf4\u4e00\u53f0\u666e\u901a\u7684\u4e09\u661f\u667a\u80fd\u7535\u89c6\u5373\u53ef\uff0c\u4ef7\u4f4d\u5728 5000 \u5143\u5de6\u53f3\uff0c\u5177\u5907\u4e0a\u7f51\u529f\u80fd\u3002\u4ed6\u8868\u793a\u5bf9\u56fd\u4ea7\u667a\u80fd\u7535\u89c6\u7684\u754c\u9762\u548c\u64cd\u4f5c\u4f53\u9a8c&ldquo;\u65e0\u6cd5\u5fcd\u53d7&rdquo;\uff0c\u8fd8\u4e0d\u5982\u7528\u4ed6\u7684\u4e09\u661f\u5e73\u677f\u770b\u7535\u5f71\u3002\u4f46\u4ed6\u5bf9\u98ce\u4f20\u7684\u82f9\u679c\u667a\u80fd\u7535\u89c6\u62b1\u6709\u5f88\u5927\u5174\u8da3\uff0c\u5982\u679c\u4e0a\u5e02\u7684\u8bdd\u4f1a\u8003\u8651\u5165\u624b\u4e00\u53f0\uff08\u524d\u63d0\u662f\u4ef7\u683c\u80fd\u627f\u53d7\uff09\u3002\u000a\u667a\u80fd\u7535\u89c6\u63a8\u5e7f\u5f97\u4ece\u5934\u505a\u8d77\u000a\u867d\u7136\u5404\u5bb6\u7535\u89c6\u5382\u5546\u7eb7\u7eb7\u5728\u7535\u5668\u5546\u57ce\u91cc\u6253\u51fa\u667a\u80fd\u7535\u89c6\u7684\u724c\u5b50\uff0c\u4f46\u662f\u4e70\u8d26\u7684\u6d88\u8d39\u8005\u5e76\u6ca1\u6709\u60f3\u8c61\u4e2d\u7684\u591a\u3002\u5c24\u5176\u662f\u6bd4\u975e\u667a\u80fd\u7535\u89c6\u9ad8\u51fa\u4e00\u500d\u4e43\u81f3\u6570\u500d\u7684\u4ef7\u683c\uff0c\u8ba9\u5408\u80a5\u8fd9\u4e2a\u4e09\u7ebf\u57ce\u5e02\u7684\u666e\u901a\u5c45\u6c11\u96be\u4ee5\u627f\u53d7\u3002\u53e6\u5916\uff0c\u5f88\u591a\u4e2d\u8001\u5e74\u6d88\u8d39\u7fa4\u4f53\u8fde\u667a\u80fd\u624b\u673a\u5c1a\u4e14\u4e0d\u4f1a\u7528\uff0c\u8ba9\u4ed6\u4eec\u6765\u64cd\u4f5c\u4e00\u4e2a 40 \u5bf8\u7684\u5b89\u5353\u624b\u673a\u66f4\u4e0d\u53ef\u884c\u3002\u4e0d\u50cf\u5317\u4eac\u5230\u5904\u90fd\u80fd\u770b\u5230\u80cc\u7740\u7b14\u8bb0\u672c\u7535\u8111\u7684\u4e0a\u73ed\u65cf\uff0c\u6216\u662f\u624b\u6301\u5e73\u677f\u7535\u8111\u7684\u5e74\u8f7b\u4e00\u65cf\uff0c\u5408\u80a5\u8857\u5934\u643a\u5e26\u7b14\u8bb0\u672c\u7535\u8111\u4e0a\u73ed\u7684\u4eba\u4ecd\u5728\u5c11\u6570\uff0c\u8fd9\u4e5f\u5728\u4e00\u5b9a\u7a0b\u5ea6\u4e0a\u53cd\u6620\u4e86\u5408\u80a5\u7684\u79fb\u52a8\u529e\u516c\u6c34\u5e73\u76f8\u6bd4\u4e00\u7ebf\u57ce\u5e02\u7684\u5317\u4eac\u5dee\u8ddd\u8fd8\u662f\u4e0d\u5c0f\u3002\u79fb\u52a8\u529e\u516c\u7684\u666e\u53ca\u7387\u610f\u5473\u7740\u5bf9\u667a\u80fd\u8bbe\u5907\u7684\u719f\u77e5\u7a0b\u5ea6\u3002\u000a\u000a\u8981\u5728\u5408\u80a5\u8fd9\u6837\u7684\u57ce\u5e02\u666e\u53ca\u667a\u80fd\u7535\u89c6\uff0c\u9996\u5148\u8981\u964d\u4f4e 3G \u7f51\u7edc\u8d44\u8d39\u3001\u63d0\u5347\u7f51\u901f\uff0c\u52a0\u5feb\u63d0\u9ad8\u667a\u80fd\u7ec8\u7aef\u8bbe\u5907\u7684\u4f7f\u7528\u7387\uff0c\u4e3a\u666e\u901a\u6d88\u8d39\u8005\u5bf9\u667a\u80fd\u7535\u89c6\u6709\u4e00\u4e2a\u57fa\u672c\u7684\u8ba4\u77e5\u6253\u4e0b\u57fa\u7840\uff1b\u5176\u6b21\uff0c\u667a\u80fd\u7535\u89c6\u7684\u76f8\u5173\u65b0\u95fb\u3001\u77e5\u8bc6\u8bb2\u89e3\u5e94\u5f53\u6df1\u5165\u5230\u4e09\u56db\u7ebf\u57ce\u5e02\uff0c\u6bd4\u5982\u524d\u4e0d\u4e45\u53d1\u5e03\u7684\u4e50\u89c6 TV\uff0c\u6211\u95ee\u4e86\u5f88\u591a\u5728\u5408\u80a5\u7684\u540c\u9f84\u4eba\u90fd\u538b\u6839\u4e0d\u77e5\u9053\u8fd9\u4e2a\u4fe1\u606f\uff1b\u6700\u540e\uff0c\u63d0\u5347\u73b0\u6709\u667a\u80fd\u7535\u89c6\u7684\u64cd\u4f5c\u4f53\u9a8c\uff0c\u4e09\u7ebf\u57ce\u5e02\u6d88\u8d39\u8005\u56e0\u4e3a\u5bf9\u667a\u80fd\u8bbe\u5907\u63a5\u89e6\u7387\u76f8\u5bf9\u4e00\u7ebf\u57ce\u5e02\u8f83\u4f4e\uff0c\u66f4\u9700\u8981\u7b80\u5355\u76f4\u89c2\u7684\u64cd\u4f5c\u65b9\u5f0f\u3002\u6781\u5ba2\u89c2\u5bdf\u5747\u4e3a\u6781\u5ba2\u516c\u56ed\u539f\u521b\u62a5\u9053\uff0c\u8f6c\u8f7d\u8bf7\u6ce8\u660e\u539f\u6587\u94fe\u63a5\u3002\u539f\u6587\u5730\u5740\uff1ahttp://www.geekpark.net/read/view/178945\u5173\u6ce8\u6781\u5ba2\u516c\u56ed\uff0c\u5373\u65f6\u83b7\u5f97\u6700\u65b0\u5185\u5bb9\uff1aTwitter | \u5fae\u4fe1\uff1a\u6781\u5ba2\u516c\u56ed | \u65b0\u6d6a\u5fae\u535a | \u82b1\u74e3\u7f51 | \u4eba\u4eba\u5c0f\u7ad9 | Google+ | \u70b9\u70b9
p10
sS'content'
p11
V2012 \u5e74 12 \u6708 4 \u65e5\uff0c\u300a\u7ecf\u6d4e\u5b66\u4eba\u300b\u5b98\u7f51\u4e0a\u53d1\u5e03\u4e86\u4e00\u7bc7\u540d\u4e3a\u300a\u90fd\u5e02\u7ecf\u6d4e\u4f53\u300b\u7684\u62a5\u544a\uff0c\u901a\u8fc7\u56fe\u8868\u5217\u51fa\u4e86\u4e16\u754c\u589e\u957f\u6700\u5feb/\u6162\u90fd\u5e02\u7ecf\u6d4e\u4f53\u3002\u4ece\u6700\u8fd15\u5e74\u6765\u770b\uff0c\u6309\u5b9e\u9645\u4eba\u5747GDP\u8ba1\u7b97\uff0c\u4e16\u754c\u4e0a\u589e\u957f\u6700\u5feb\u7684\u90fd\u5e02\u7ecf\u6d4e\u4f53\u662f\u4e2d\u56fd\u5b89\u5fbd\u7684\u7701\u4f1a\u57ce\u5e02\u5408\u80a5\u3002\u6309\u7167\u5408\u80a5\u7684\u57ce\u5e02\u53d1\u5c55\u6218\u7565\u89c4\u5212\uff0c\u5230 2015 \u5e74\uff0c\u8981\u8fbe\u5230\u5e02\u533a\u4eba\u53e3 400 \u4e07\uff0c\u603b\u4eba\u53e3\u8d85\u8fc7 600 \u4e07\uff0c\u8fdc\u666f\u5e02\u57df\u4eba\u53e3\u7a81\u7834 1000 \u4e07\uff0c\u5e02\u533a\u4eba\u53e3\u7a81\u7834 800 \u4e07\u7684\u76ee\u6807\uff0c\u6210\u4e3a\u4e2d\u90e8\u7684\u533a\u57df\u6027\u7279\u5927\u57ce\u5e02\u3002\u5408\u80a5\u5df2\u5efa\u6709 2 \u5ea7\u4e07\u8fbe\u5e7f\u573a\uff08\u672a\u6765\u4f1a\u8fbe\u5230 5 \u5ea7\uff09\uff0c\u56fd\u9645\u5962\u4f88\u54c1 LV \u4e8e\u53bb\u5e74\u8fdb\u9a7b\u5408\u80a5\uff0c\u6d77\u5e95\u635e\u4e5f\u4e8e\u524d\u4e0d\u4e45\u5f00\u4e1a\u3002\u6839\u636e\u667a\u8054\u62db\u8058\u53d1\u5e03\u7684\u300a2013\u6625\u5b63\u804c\u573a\u624d\u60c5\u62a5\u544a\u300b\uff0c\u5408\u80a5\u5728\u53c2\u9009\u7684 24 \u4e2a\u57ce\u5e02\u85aa\u916c\u6392\u540d\u4e2d\u540d\u5217\u7b2c 17 \u540d\uff0c\u5e73\u5747\u6708\u85aa 3151 \u5143\u3002\u5408\u80a5\u7684\u57ce\u5e02\u8d2d\u4e70\u529b\u76f4\u903c\u4e8c\u7ebf\u57ce\u5e02\u30025 \u6708\u521d\uff0c\u4e2d\u56fd\u7535\u4fe1\u7684 4G \u4f53\u9a8c\u6d3b\u52a8\u9009\u62e9\u5728\u5408\u80a5\u9996\u6b21\u5411\u5168\u56fd\u516c\u5f00\u4eae\u76f8\u3002\u82f9\u679c\u4ea7\u54c1\u7684\u4e13\u5356\u5e97\u5728\u5e02\u533a\u968f\u5904\u53ef\u89c1\u3002\u90a3\u4e48\u5728\u8fd9\u6837\u4e00\u4e2a\u57ce\u5e02\u91cc\uff0c\u667a\u80fd\u7535\u89c6\u662f\u5426\u80fd\u53d6\u5f97\u8db3\u591f\u7684\u5e02\u573a\u7a7a\u95f4\u5462\uff1f\u6211\u8d70\u8bbf\u4e86\u5408\u80a5\u56db\u5bb6\u4e3b\u8981\u7535\u5668\u5546\u57ce\u7684\u95e8\u5e97\uff0c\u5206\u522b\u662f\uff1a\u82cf\u5b81\u3001\u56fd\u7f8e\u3001\u767e\u5927\u7535\u5668\u548c\u4e94\u661f\u7535\u5668\uff0c\u5206\u522b\u4f4d\u4e8e\u6bd4\u8f83\u7e41\u534e\u7684\u4e09\u91cc\u5eb5\u548c\u4e09\u5b5d\u53e3\u3002\u56db\u5bb6\u7535\u5668\u57ce\u91cc\u7684\u7535\u89c6\u5c55\u533a\u57fa\u672c\u76f8\u4f3c\uff0c\u8fdb\u9a7b\u7684\u7535\u89c6\u54c1\u724c\u76f8\u5dee\u4e0d\u5927\u3002\u957f\u8679\u3001\u6d77\u5c14\u3001\u521b\u7ef4\u3001TCL\u3001\u5eb7\u4f73\u3001\u6d77\u4fe1\u8fd9\u516d\u4e2a\u8001\u724c\u56fd\u4ea7\u7535\u89c6\u5382\u5546\u5747\u5728\u56db\u5bb6\u95e8\u5e97\u4e2d\u8bbe\u6709\u5c55\u533a\uff0c\u800c\u7d22\u5c3c\u3001\u590f\u666e\u3001\u4e09\u661f\u3001LG\u3001\u98de\u5229\u6d66\u7b49\u56fd\u5916\u5382\u5546\u5728\u82cf\u5b81\u548c\u767e\u5927\u4e2d\u8f83\u4e3a\u9f50\u5907\u3002\u8054\u60f3\u7684\u5c55\u533a\u5219\u6bd4\u8f83\u4f4e\u8c03\u5730\u85cf\u5728\u5546\u573a\u4fa7\u8fb9\uff0c\u6211\u5dee\u70b9\u90fd\u6ca1\u53d1\u73b0\u3002\u56fd\u5185\u548c\u56fd\u5916\u7535\u89c6\u5382\u5546\u5728\u5bf9\u667a\u80fd\u7535\u89c6\u547d\u540d\u4e0a\u6709\u6bd4\u8f83\u660e\u663e\u7684\u533a\u522b\u3002\u56fd\u5185\u4f20\u7edf\u7535\u89c6\u54c1\u724c\u7eb7\u7eb7\u51a0\u4ee5\u201c\u4e91\u201d\u5b57\u5934\u79f0\u8c13\uff0c\u5982\u6d77\u5c14\u4e91 TV\u3001\u521b\u7ef4\u9177\u5f00\u4e91\u7535\u89c6\u3001TCL \u667a\u80fd\u4e91\u7535\u89c6\u3001\u5eb7\u4f73\u540c\u6b65\u4e91\u7535\u89c6\u3002\u800c\u56fd\u5916\u54c1\u724c\u5e76\u6ca1\u6709\u5728\u4e91\u3001\u667a\u80fd\u4e4b\u7c7b\u7684\u6982\u5ff5\u4e0a\u6709\u592a\u591a\u7740\u7b14\u3002\u56fd\u4ea7\u667a\u80fd\u7535\u89c6\u7cfb\u7edf\u5168\u90e8\u57fa\u4e8e Android 4.0 \u5b9a\u5236\u800c\u6210\uff0c\u64cd\u4f5c\u754c\u9762\u7b49\u4e8e\u662f\u4e00\u4e2a\u653e\u5927\u7248\u7684 Android \u624b\u673a\uff0c\u4f46\u662f UI \u76f8\u5f53\u7c97\u7cd9\uff0c\u901a\u8fc7\u9065\u63a7\u5668\u7684\u64cd\u4f5c\u6bd4\u4f20\u7edf\u7535\u89c6\u66f4\u4e3a\u590d\u6742\u3002\u56fd\u5916\u5382\u5546\u5185\u7f6e\u7684\u5927\u90e8\u5206\u4e3a\u81ea\u4e3b\u7814\u53d1\u7684\u7cfb\u7edf\uff0c\u529f\u80fd\u548c\u64cd\u4f5c\u76f8\u5bf9\u7b80\u5355\uff0c\u4f46\u6bd4\u524d\u4e00\u4ee3\u7684\u6570\u5b57\u7535\u89c6\u6709\u66f4\u52a0\u7f8e\u89c2\u7684\u64cd\u4f5c\u754c\u9762\uff0c\u5e76\u4e14\u80fd\u591f\u901a\u8fc7\u6709\u7ebf\u548c\u65e0\u7ebf\u65b9\u5f0f\u6d4f\u89c8\u7f51\u9875\u3002\u6211\u8d70\u8bbf\u82cf\u5b81\u7535\u5668\u7684\u8fc7\u7a0b\u4e2d\u9047\u5230\u4e00\u5bf9\u5e74\u9f84\u7ea6\u56db\u4e94\u5341\u5c81\u7684\u592b\u5987\u6765\u9009\u8d2d\u7535\u89c6\u3002\u4ed6\u4eec\u8bf4\u81ea\u5df1\u5bb6\u7684\u7535\u89c6\u770b\u4e86\u5341\u51e0\u5e74\u5feb\u574f\u4e86\uff0c\u73b0\u5728\u6253\u7b97\u6362\u4e2a\u65b0\u7684\uff0c\u901b\u4e86\u597d\u51e0\u5bb6\u7535\u5668\u5546\u57ce\u53d1\u73b0\u5356\u7684\u90fd\u662f 40 \u5bf8\u4e43\u81f3 60 \u5bf8\u7684\u667a\u80fd\u7535\u89c6\uff0c\u52a8\u8f84 10000 \u5143\u4ee5\u4e0a\u7684\u4ef7\u683c\u8ba9\u4ed6\u4eec\u65e0\u6cd5\u63a5\u53d7\u3002\u800c\u4e14\u4ed6\u4eec\u76ee\u524d\u7528\u7684\u4ecd\u662f\u8bfa\u57fa\u4e9a\u7684\u529f\u80fd\u673a\uff0c\u5bf9\u667a\u80fd\u7535\u89c6\u773c\u82b1\u7f2d\u4e71\u7684\u64cd\u4f5c\u754c\u9762\u611f\u5230\u627e\u4e0d\u7740\u5317\u3002\u5c24\u5176\u662f\u5e97\u5458\u6f14\u793a\u5982\u4f55\u8fde\u63a5\u65e0\u7ebf\u7f51\u65f6\uff0c\u8fd9\u5bf9\u592b\u5987\u8868\u793a\u5b8c\u5168\u8bb0\u4e0d\u4f4f\u8fd9\u4e9b\u6b65\u9aa4\u3002\u5e97\u5458\u5728\u5411\u4ed6\u4eec\u4ecb\u7ecd\u667a\u80fd\u7535\u89c6\u7684\u7cfb\u7edf\u65f6\u4e5f\u5b58\u5728\u4e0d\u5c11\u5e38\u8bc6\u6027\u9519\u8bef\uff0c\u6bd4\u5982\u201c\u7535\u89c6\u9884\u88c5\u7684\u5b89\u5353 4.0.4 \u662f\u6700\u65b0\u7684\u7cfb\u7edf\uff0c\u6bd4\u624b\u673a\u4e0a\u7684 4.0 \u66f4\u5148\u8fdb\u201d\u4e4b\u7c7b\u3002\u8fd9\u65e2\u4e0d\u80fd\u52a0\u6df1\u4e2d\u8001\u5e74\u5ba2\u6237\u5bf9\u667a\u80fd\u7535\u89c6\u7684\u8ba4\u77e5\uff0c\u4e5f\u4f1a\u8ba9\u61c2\u884c\u7684\u5e74\u8f7b\u4eba\u89c9\u5f97\u4e0d\u4e13\u4e1a\u3002\u8fd9\u5bf9\u592b\u5987\u5bf9\u6211\u8bf4\uff0c\u4ed6\u4eec\u53ea\u662f\u60f3\u4e70\u4e00\u53f0\u4e09\u56db\u5343\u5757\u94b1\u7684\u5c4f\u5e55\u5927\u4e00\u4e9b\u7684\u7535\u89c6\u800c\u5df2\uff0c\u5bf9\u4e8e\u4e0a\u7f51\u529f\u80fd\u5174\u8da3\u4e0d\u5927\uff0c\u56e0\u4e3a\u5bb6\u91cc\u5df2\u7ecf\u6709\u4e00\u90e8\u53f0\u5f0f\u673a\u3002\u6e38\u620f\u529f\u80fd\u5c31\u66f4\u662f\u9e21\u808b\u4e86\uff0c\u4ed6\u4eec\u538b\u6839\u5c31\u4e0d\u73a9\u6e38\u620f\u3002\u6211\u7684\u4e00\u4e2a\u540c\u9f84\u5973\u6027\u670b\u53cb\u73b0\u5728\u5408\u80a5\u5b9a\u5c45\uff0c\u6b63\u5728\u548c\u5979\u7684\u7537\u670b\u53cb\u5c0f\u6e38\u7f6e\u529e\u65b0\u623f\u7684\u5bb6\u7535\u3002\u5c0f\u6e38\u5728\u4e00\u5bb6\u5de5\u7a0b\u516c\u53f8\u4ece\u4e8b\u8d28\u76d1\u5de5\u4f5c\uff0c\u6709\u4e00\u90e8 iPhone \u624b\u673a\u548c \u4e09\u661f\u7684 Galaxy Tab \u5e73\u677f\u7535\u8111\u3002\u6211\u95ee\u5c0f\u6e38\u6253\u7b97\u4e70\u4ec0\u4e48\u6837\u7684\u7535\u89c6\uff0c\u4ed6\u8bf4\u4e00\u53f0\u666e\u901a\u7684\u4e09\u661f\u667a\u80fd\u7535\u89c6\u5373\u53ef\uff0c\u4ef7\u4f4d\u5728 5000 \u5143\u5de6\u53f3\uff0c\u5177\u5907\u4e0a\u7f51\u529f\u80fd\u3002\u4ed6\u8868\u793a\u5bf9\u56fd\u4ea7\u667a\u80fd\u7535\u89c6\u7684\u754c\u9762\u548c\u64cd\u4f5c\u4f53\u9a8c\u201c\u65e0\u6cd5\u5fcd\u53d7\u201d\uff0c\u8fd8\u4e0d\u5982\u7528\u4ed6\u7684\u4e09\u661f\u5e73\u677f\u770b\u7535\u5f71\u3002\u4f46\u4ed6\u5bf9\u98ce\u4f20\u7684\u82f9\u679c\u667a\u80fd\u7535\u89c6\u62b1\u6709\u5f88\u5927\u5174\u8da3\uff0c\u5982\u679c\u4e0a\u5e02\u7684\u8bdd\u4f1a\u8003\u8651\u5165\u624b\u4e00\u53f0\uff08\u524d\u63d0\u662f\u4ef7\u683c\u80fd\u627f\u53d7\uff09\u3002\u867d\u7136\u5404\u5bb6\u7535\u89c6\u5382\u5546\u7eb7\u7eb7\u5728\u7535\u5668\u5546\u57ce\u91cc\u6253\u51fa\u667a\u80fd\u7535\u89c6\u7684\u724c\u5b50\uff0c\u4f46\u662f\u4e70\u8d26\u7684\u6d88\u8d39\u8005\u5e76\u6ca1\u6709\u60f3\u8c61\u4e2d\u7684\u591a\u3002\u5c24\u5176\u662f\u6bd4\u975e\u667a\u80fd\u7535\u89c6\u9ad8\u51fa\u4e00\u500d\u4e43\u81f3\u6570\u500d\u7684\u4ef7\u683c\uff0c\u8ba9\u5408\u80a5\u8fd9\u4e2a\u4e09\u7ebf\u57ce\u5e02\u7684\u666e\u901a\u5c45\u6c11\u96be\u4ee5\u627f\u53d7\u3002\u53e6\u5916\uff0c\u5f88\u591a\u4e2d\u8001\u5e74\u6d88\u8d39\u7fa4\u4f53\u8fde\u667a\u80fd\u624b\u673a\u5c1a\u4e14\u4e0d\u4f1a\u7528\uff0c\u8ba9\u4ed6\u4eec\u6765\u64cd\u4f5c\u4e00\u4e2a 40 \u5bf8\u7684\u5b89\u5353\u624b\u673a\u66f4\u4e0d\u53ef\u884c\u3002\u4e0d\u50cf\u5317\u4eac\u5230\u5904\u90fd\u80fd\u770b\u5230\u80cc\u7740\u7b14\u8bb0\u672c\u7535\u8111\u7684\u4e0a\u73ed\u65cf\uff0c\u6216\u662f\u624b\u6301\u5e73\u677f\u7535\u8111\u7684\u5e74\u8f7b\u4e00\u65cf\uff0c\u5408\u80a5\u8857\u5934\u643a\u5e26\u7b14\u8bb0\u672c\u7535\u8111\u4e0a\u73ed\u7684\u4eba\u4ecd\u5728\u5c11\u6570\uff0c\u8fd9\u4e5f\u5728\u4e00\u5b9a\u7a0b\u5ea6\u4e0a\u53cd\u6620\u4e86\u5408\u80a5\u7684\u79fb\u52a8\u529e\u516c\u6c34\u5e73\u76f8\u6bd4\u4e00\u7ebf\u57ce\u5e02\u7684\u5317\u4eac\u5dee\u8ddd\u8fd8\u662f\u4e0d\u5c0f\u3002\u79fb\u52a8\u529e\u516c\u7684\u666e\u53ca\u7387\u610f\u5473\u7740\u5bf9\u667a\u80fd\u8bbe\u5907\u7684\u719f\u77e5\u7a0b\u5ea6\u3002\u8981\u5728\u5408\u80a5\u8fd9\u6837\u7684\u57ce\u5e02\u666e\u53ca\u667a\u80fd\u7535\u89c6\uff0c\u9996\u5148\u8981\u964d\u4f4e 3G \u7f51\u7edc\u8d44\u8d39\u3001\u63d0\u5347\u7f51\u901f\uff0c\u52a0\u5feb\u63d0\u9ad8\u667a\u80fd\u7ec8\u7aef\u8bbe\u5907\u7684\u4f7f\u7528\u7387\uff0c\u4e3a\u666e\u901a\u6d88\u8d39\u8005\u5bf9\u667a\u80fd\u7535\u89c6\u6709\u4e00\u4e2a\u57fa\u672c\u7684\u8ba4\u77e5\u6253\u4e0b\u57fa\u7840\uff1b\u5176\u6b21\uff0c\u667a\u80fd\u7535\u89c6\u7684\u76f8\u5173\u65b0\u95fb\u3001\u77e5\u8bc6\u8bb2\u89e3\u5e94\u5f53\u6df1\u5165\u5230\u4e09\u56db\u7ebf\u57ce\u5e02\uff0c\u6bd4\u5982\u524d\u4e0d\u4e45\u53d1\u5e03\u7684\u4e50\u89c6 TV\uff0c\u6211\u95ee\u4e86\u5f88\u591a\u5728\u5408\u80a5\u7684\u540c\u9f84\u4eba\u90fd\u538b\u6839\u4e0d\u77e5\u9053\u8fd9\u4e2a\u4fe1\u606f\uff1b\u6700\u540e\uff0c\u63d0\u5347\u73b0\u6709\u667a\u80fd\u7535\u89c6\u7684\u64cd\u4f5c\u4f53\u9a8c\uff0c\u4e09\u7ebf\u57ce\u5e02\u6d88\u8d39\u8005\u56e0\u4e3a\u5bf9\u667a\u80fd\u8bbe\u5907\u63a5\u89e6\u7387\u76f8\u5bf9\u4e00\u7ebf\u57ce\u5e02\u8f83\u4f4e\uff0c\u66f4\u9700\u8981\u7b80\u5355\u76f4\u89c2\u7684\u64cd\u4f5c\u65b9\u5f0f\u3002
p12
sS'link'
p13
Vhttp://www.geekpark.net/read/view/178945
p14
sS'label_dict'
p15
(dp16
V\u4e0a\u5e02
p17
S'l_1'
p18
sV\u6d88\u8d39\u8005
p19
S'l_3'
p20
sV\u4e09\u661f
p21
g20
sV\u5de5\u4f5c
p22
g20
sV\u5fae\u4fe1
p23
g20
sV\u65b0\u6d6a\u5fae\u535a
p24
g20
sV\u5982\u4f55
p25
g20
sV\u53d1\u5e03
p26
S'l_2'
p27
sV\u82f9\u679c
p28
g20
sV\u4ea7\u54c1
p29
g20
sV\u624b\u673a
p30
g20
sV\u5e02\u573a
p31
g20
sV\u8bfa\u57fa\u4e9a
p32
g20
ssba.