(dp1
I1
I2337
sI2
I2338
sI3
I642
sI4
I2640
sI5
I1680
sI6
I1681
sI7
I1168
sI8
I1169
sI9
I3349
sI10
I3350
sI11
I2964
sI12
I2965
sI13
I3911
sI14
I643
sI15
I1461
sI16
I1462
sI17
I1782
sI18
I1109
sI19
I1110
sI20
I1649
sI21
I1650
sI22
I2031
sI23
I2032
sI24
I1624
sI25
I432
sI26
I1625
sI27
I2379
sI28
I2380
sI29
I1432
sI30
I1433
sI31
I1659
sI32
I1660
sI33
I2037
sI34
I2038
sI35
I952
sI36
I433
sI37
I953
sI38
I1523
sI39
I1524
sI40
I1879
sI41
I1880
sI42
I1957
sI43
I1958
sI44
I1147
sI45
I1148
sI46
I17
sI47
I757
sI48
I17
sI49
I17
sI50
I17
sI51
I17
sI52
I17
sI53
I17
sI54
I17
sI55
I17
sI56
I17
sI57
I1404
sI58
I758
sI59
I17
sI60
I2957
sI61
I26
sI62
I2340
sI63
I2340
sI64
I3608
sI65
I2143
sI66
I2653
sI67
I4019
sI68
I1968
sI69
I1744
sI70
I1969
sI71
I489
sI72
I490
sI73
I1944
sI74
I1945
sI75
I2709
sI76
I2710
sI77
I26
sI78
I3524
sI79
I1745
sI80
I3525
sI81
I1690
sI82
I1691
sI83
I929
sI84
I930
sI85
I1199
sI86
I1200
sI87
I2254
sI88
I2255
sI89
I1356
sI90
I3302
sI91
I1357
sI92
I1427
sI93
I1428
sI94
I2968
sI95
I2969
sI96
I1176
sI97
I1177
sI98
I1684
sI99
I1685
sI100
I3609
sI101
I3303
sI102
I3491
sI103
I3492
sI104
I2853
sI105
I2854
sI106
I3084
sI107
I3085
sI108
I17
sI109
I1374
sI110
I2653
sI111
I6545
sI112
I1483
sI113
I841
sI114
I26
sI115
I1486
sI116
I1486
sI117
I10
sI118
I1483
sI119
I1484
sI120
I2017
sI121
I2018
sI122
I1469
sI123
I1470
sI124
I842
sI125
I577
sI126
I578
sI127
I1773
sI128
I1774
sI129
I402
sI130
I403
sI131
I1790
sI132
I1791
sI133
I1470
sI134
I1471
sI135
I2303
sI136
I17
sI137
I807
sI138
I3725
sI139
I26
sI140
I1020
sI141
I1020
sI142
I3726
sI143
I592
sI144
I593
sI145
I1819
sI146
I2304
sI147
I1820
sI148
I808
sI149
I1456
sI150
I1457
sI151
I1203
sI152
I1204
sI153
I1453
sI154
I1454
sI155
I424
sI156
I425
sI157
I836
sI158
I1468
sI159
I1469
sI160
I1348
sI161
I1349
sI162
I17
sI163
I26
sI164
I427
sI165
I427
sI166
I457
sI167
I458
sI168
I837
sI169
I632
sI170
I633
sI171
I754
sI172
I755
sI173
I1648
sI174
I1649
sI175
I542
sI176
I543
sI177
I4020
sI178
I101
sI179
I1311
sI180
I102
sI181
I1734
sI182
I1735
sI183
I403
sI184
I404
sI185
I2058
sI186
I2059
sI187
I2085
sI188
I2086
sI189
I1312
sI190
I17
sI191
I26
sI192
I3396
sI193
I3396
sI194
I17
sI195
I26
sI196
I645
sI197
I645
sI198
I551
sI199
I552
sI200
I368
sI201
I1776
sI202
I1777
sI203
I822
sI204
I823
sI205
I1733
sI206
I1734
sI207
I1144
sI208
I1145
sI209
I550
sI210
I369
sI211
I551
sI212
I863
sI213
I864
sI214
I1328
sI215
I1329
sI216
I737
sI217
I738
sI218
I270
sI219
I17
sI220
I545
sI221
I1484
sI222
I2230
sI223
I270
sI224
I26
sI225
I435
sI226
I435
sI227
I4300
sI228
I4301
sI229
I1383
sI230
I1384
sI231
I781
sI232
I782
sI233
I2231
sI234
I543
sI235
I544
sI236
I2112
sI237
I2113
sI238
I1334
sI239
I1335
sI240
I971
sI241
I972
sI242
I1182
sI243
I1183
sI244
I1663
sI245
I271
sI246
I546
sI247
I17
sI248
I26
sI249
I760
sI250
I760
sI251
I2248
sI252
I2249
sI253
I1258
sI254
I1259
sI255
I1664
sI256
I568
sI257
I569
sI258
I604
sI259
I605
sI260
I1440
sI261
I1441
sI262
I5822
sI263
I5823
sI264
I544
sI265
I545
sI266
I1506
sI267
I622
sI268
I623
sI269
I834
sI270
I835
sI271
I2119
sI272
I2120
sI273
I1743
sI274
I1744
sI275
I2842
sI276
I2843
sI277
I1507
sI278
I1109
sI279
I1110
sI280
I17
sI281
I1994
sI282
I26
sI283
I1747
sI284
I1747
sI285
I10
sI286
I1744
sI287
I1745
sI288
I412
sI289
I2831
sI290
I2832
sI291
I796
sI292
I797
sI293
I1061
sI294
I1062
sI295
I572
sI296
I573
sI297
I887
sI298
I888
sI299
I413
sI300
I1440
sI301
I1441
sI302
I1396
sI303
I1397
sI304
I2092
sI305
I2093
sI306
I2430
sI307
I2431
sI308
I1223
sI309
I1224
sI310
I2831
sI311
I1454
sI312
I1455
sI313
I1389
sI314
I1390
sI315
I1079
sI316
I1080
sI317
I1995
sI318
I899
sI319
I900
sI320
I2411
sI321
I2832
sI322
I2412
sI323
I396
sI324
I397
sI325
I1202
sI326
I1203
sI327
I2327
sI328
I2328
sI329
I2564
sI330
I2565
sI331
I1274
sI332
I1017
sI333
I1162
sI334
I1275
sI335
I1057
sI336
I1058
sI337
I987
sI338
I988
sI339
I1163
sI340
I3510
sI341
I3511
sI342
I3227
sI343
I3228
sI344
I1461
sI345
I1462
sI346
I1782
sI347
I1783
sI348
I1018
sI349
I1109
sI350
I1110
sI351
I1649
sI352
I1650
sI353
I2031
sI354
I2032
sI355
I1624
sI356
I1625
sI357
I1432
sI358
I1433
sI359
I424
sI360
I1659
sI361
I1660
sI362
I1784
sI363
I1783
sI364
I1485
sI365
I3395
sI366
I3395
sI367
I2559
sI368
I2558
sI369
I3513
sI370
I425
sI371
I3514
sI372
I2931
sI373
I2932
sI374
I1948
sI375
I1949
sI376
I3571
sI377
I3572
sI378
I6755
sI379
I6756
sI380
I1507
sI381
I3393
sI382
I1508
sI383
I2199
sI384
I2200
sI385
I2624
sI386
I2625
sI387
I1943
sI388
I1944
sI389
I814
sI390
I815
sI391
I2293
sI392
I3394
sI393
I2294
sI394
I2908
sI395
I2909
sI396
I2255
sI397
I2256
sI398
I2978
sI399
I2979
sI400
I2104
sI401
I2105
sI402
I2639
s.